; Function Attrs: nounwind uwtable
define dso_local i32 @cbuf_read_to_fd(ptr noundef %0, i32 noundef %1, i32 noundef %2) local_unnamed_addr #0 {
  %4 = icmp slt i32 %1, 0
  %5 = icmp slt i32 %2, -1
  %or.cond = or i1 %4, %5
  br i1 %or.cond, label %6, label %8

6:                                                ; preds = %3
  %7 = tail call ptr @__errno_location() #14
  store i32 22, ptr %7, align 4
  br label %67

8:                                                ; preds = %3
  %9 = tail call i32 @pthread_mutex_lock(ptr noundef %0) #15
  %.not = icmp eq i32 %9, 0
  br i1 %.not, label %12, label %10

10:                                               ; preds = %8
  %11 = tail call ptr @__errno_location() #14
  store i32 %9, ptr %11, align 4
  tail call void (ptr, ...) @fatal_abort(ptr noundef nonnull @.str.2, ptr noundef nonnull @__func__.cbuf_read_to_fd) #16
  unreachable

12:                                               ; preds = %8
  %13 = icmp eq i32 %2, -1
  br i1 %13, label %14, label %17

14:                                               ; preds = %12
  %15 = getelementptr inbounds nuw i8, ptr %0, i64 56
  %16 = load i32, ptr %15, align 8
  br label %17

17:                                               ; preds = %14, %12
  %.017 = phi i32 [ %16, %14 ], [ %2, %12 ]
  %18 = icmp sgt i32 %.017, 0
  br i1 %18, label %19, label %cbuf_reader.exit.thread

19:                                               ; preds = %17
  %20 = getelementptr inbounds nuw i8, ptr %0, i64 56
  %21 = load i32, ptr %20, align 8
  %..i = tail call i32 @llvm.smin.i32(i32 range(i32 1, -2147483648) %.017, i32 %21)
  %22 = icmp eq i32 %21, 0
  br i1 %22, label %cbuf_reader.exit.thread, label %23

23:                                               ; preds = %19
  %.old1.i = icmp sgt i32 %21, 0
  br i1 %.old1.i, label %.preheader.i, label %cbuf_reader.exit

.preheader.i:                                     ; preds = %23
  %24 = getelementptr inbounds nuw i8, ptr %0, i64 72
  %25 = load i32, ptr %24, align 8
  %26 = getelementptr inbounds nuw i8, ptr %0, i64 52
  %27 = getelementptr inbounds nuw i8, ptr %0, i64 80
  br label %28

28:                                               ; preds = %cbuf_put_fd.exit.thread, %.preheader.i
  %.035.i = phi i32 [ %.2.i, %cbuf_put_fd.exit.thread ], [ %..i, %.preheader.i ]
  %.0.i = phi i32 [ %.1.i, %cbuf_put_fd.exit.thread ], [ %25, %.preheader.i ]
  %29 = load i32, ptr %26, align 4
  %reass.sub = sub i32 %29, %.0.i
  %30 = add i32 %reass.sub, 1
  %.035..i = tail call i32 @llvm.smin.i32(i32 %.035.i, i32 %30)
  %31 = load ptr, ptr %27, align 8
  %32 = sext i32 %.0.i to i64
  %33 = getelementptr inbounds i8, ptr %31, i64 %32
  %34 = sext i32 %.035..i to i64
  br label %35

35:                                               ; preds = %39, %28
  %36 = tail call i64 @write(i32 noundef %1, ptr noundef readonly %33, i64 noundef %34) #15
  %37 = trunc i64 %36 to i32
  %38 = icmp slt i32 %37, 0
  br i1 %38, label %39, label %cbuf_put_fd.exit

39:                                               ; preds = %35
  %40 = tail call ptr @__errno_location() #14
  %41 = load i32, ptr %40, align 4
  %42 = icmp eq i32 %41, 4
  br i1 %42, label %35, label %cbuf_put_fd.exit.thread, !llvm.loop !16

cbuf_put_fd.exit:                                 ; preds = %35
  %.not25 = icmp eq i32 %37, 0
  br i1 %.not25, label %cbuf_put_fd.exit.thread, label %43

43:                                               ; preds = %cbuf_put_fd.exit
  %44 = sub nsw i32 %.035.i, %37
  %45 = add nsw i32 %.0.i, %37
  %46 = load i32, ptr %26, align 4
  %47 = add nsw i32 %46, 1
  %48 = srem i32 %45, %47
  br label %cbuf_put_fd.exit.thread

cbuf_put_fd.exit.thread:                          ; preds = %39, %43, %cbuf_put_fd.exit
  %.2.i = phi i32 [ %44, %43 ], [ %.035.i, %cbuf_put_fd.exit ], [ %.035.i, %39 ]
  %.1.i = phi i32 [ %48, %43 ], [ %.0.i, %cbuf_put_fd.exit ], [ %.0.i, %39 ]
  %49 = icmp eq i32 %.035..i, %37
  %50 = icmp sgt i32 %.2.i, 0
  %or.cond.i = select i1 %49, i1 %50, i1 false
  br i1 %or.cond.i, label %28, label %cbuf_reader.exit, !llvm.loop !12

cbuf_reader.exit:                                 ; preds = %cbuf_put_fd.exit.thread, %23
  %.136.i = phi i32 [ %..i, %23 ], [ %.2.i, %cbuf_put_fd.exit.thread ]
  %.034.i = phi i32 [ 0, %23 ], [ %37, %cbuf_put_fd.exit.thread ]
  %51 = sub nsw i32 %..i, %.136.i
  %52 = icmp eq i32 %..i, %.136.i
  %.034..i = select i1 %52, i32 %.034.i, i32 %51
  %53 = icmp sgt i32 %.034..i, 0
  br i1 %53, label %54, label %cbuf_reader.exit.thread

54:                                               ; preds = %cbuf_reader.exit
  %55 = load i32, ptr %20, align 8
  %56 = sub nsw i32 %55, %.034..i
  store i32 %56, ptr %20, align 8
  %57 = getelementptr inbounds nuw i8, ptr %0, i64 72
  %58 = load i32, ptr %57, align 8
  %59 = add nsw i32 %58, %.034..i
  %60 = getelementptr inbounds nuw i8, ptr %0, i64 52
  %61 = load i32, ptr %60, align 4
  %62 = add nsw i32 %61, 1
  %63 = srem i32 %59, %62
  store i32 %63, ptr %57, align 8
  br label %cbuf_reader.exit.thread

cbuf_reader.exit.thread:                          ; preds = %19, %17, %54, %cbuf_reader.exit
  %.018 = phi i32 [ %.034..i, %54 ], [ %.034..i, %cbuf_reader.exit ], [ 0, %17 ], [ 0, %19 ]
  %64 = tail call i32 @pthread_mutex_unlock(ptr noundef %0) #15
  %.not23 = icmp eq i32 %64, 0
  br i1 %.not23, label %67, label %65

65:                                               ; preds = %cbuf_reader.exit.thread
  %66 = tail call ptr @__errno_location() #14
  store i32 %64, ptr %66, align 4
  tail call void (ptr, ...) @fatal_abort(ptr noundef nonnull @.str.3, ptr noundef nonnull @__func__.cbuf_read_to_fd) #16
  unreachable

67:                                               ; preds = %cbuf_reader.exit.thread, %6
  %.0 = phi i32 [ -1, %6 ], [ %.018, %cbuf_reader.exit.thread ]
  ret i32 %.0
}